target datalayout = "e-m:e-p270:32:32-p271:32:32-p272:64:64-i64:64-i128:128-f80:128-n8:16:32:64-S128"
target triple = "x86_64-pc-linux-gnu"

; Function Attrs: mustprogress nounwind uwtable
define linkonce_odr noundef nonnull align 4 dereferenceable(4) ptr @_ZSt3minIiERKT_S2_S2_(ptr noundef nonnull align 4 dereferenceable(4) %0, ptr noundef nonnull align 4 dereferenceable(4) %1) #5 comdat {
  %3 = alloca ptr, align 8
  %4 = alloca ptr, align 8
  %5 = alloca ptr, align 8
  store ptr %0, ptr %4, align 8
  store ptr %1, ptr %5, align 8
  %6 = load ptr, ptr %5, align 8
  %7 = load i32, ptr %6, align 4
  %8 = load ptr, ptr %4, align 8
  %9 = load i32, ptr %8, align 4
  %10 = icmp slt i32 %7, %9
  br i1 %10, label %11, label %13

11:                                               ; preds = %2
  %12 = load ptr, ptr %5, align 8
  store ptr %12, ptr %3, align 8
  br label %15

13:                                               ; preds = %2
  %14 = load ptr, ptr %4, align 8
  store ptr %14, ptr %3, align 8
  br label %15

15:                                               ; preds = %13, %11
  %16 = load ptr, ptr %3, align 8
  ret ptr %16
}

; Function Attrs: mustprogress nounwind uwtable
define linkonce_odr noundef i32 @_ZN6google8protobuf8internal13implicit_castIimEET_RKT0_(ptr noundef nonnull align 8 dereferenceable(8) %0) #5 comdat {
  %2 = alloca ptr, align 8
  store ptr %0, ptr %2, align 8
  %3 = load ptr, ptr %2, align 8
  %4 = load i64, ptr %3, align 8
  %5 = trunc i64 %4 to i32
  ret i32 %5
}

; Function Attrs: mustprogress uwtable
define noundef i32 @_ZN6google8protobuf2io18CopyingInputStream4SkipEi(ptr noundef nonnull align 8 dereferenceable(8) %0, i32 noundef %1) unnamed_addr #4 align 2 {
  %3 = alloca i32, align 4
  %4 = alloca ptr, align 8
  %5 = alloca i32, align 4
  %6 = alloca [4096 x i8], align 16
  %7 = alloca i32, align 4
  %8 = alloca i32, align 4
  %9 = alloca i32, align 4
  %10 = alloca i32, align 4
  %11 = alloca i64, align 8
  store ptr %0, ptr %4, align 8
  store i32 %1, ptr %5, align 4
  %12 = load ptr, ptr %4, align 8
  store i32 0, ptr %7, align 4
  br label %13

13:                                               ; preds = %33, %2
  %14 = load i32, ptr %7, align 4
  %15 = load i32, ptr %5, align 4
  %16 = icmp slt i32 %14, %15
  br i1 %16, label %17, label %37

17:                                               ; preds = %13
  %18 = getelementptr inbounds [4096 x i8], ptr %6, i64 0, i64 0
  %19 = load i32, ptr %5, align 4
  %20 = load i32, ptr %7, align 4
  %21 = sub nsw i32 %19, %20
  store i32 %21, ptr %9, align 4
  store i64 4096, ptr %11, align 8
  %22 = call noundef i32 @_ZN6google8protobuf8internal13implicit_castIimEET_RKT0_(ptr noundef nonnull align 8 dereferenceable(8) %11)
  store i32 %22, ptr %10, align 4
  %23 = call noundef nonnull align 4 dereferenceable(4) ptr @_ZSt3minIiERKT_S2_S2_(ptr noundef nonnull align 4 dereferenceable(4) %9, ptr noundef nonnull align 4 dereferenceable(4) %10)
  %24 = load i32, ptr %23, align 4
  %25 = load ptr, ptr %12, align 8
  %26 = getelementptr inbounds ptr, ptr %25, i64 2
  %27 = load ptr, ptr %26, align 8
  %28 = call noundef i32 %27(ptr noundef nonnull align 8 dereferenceable(8) %12, ptr noundef %18, i32 noundef %24)
  store i32 %28, ptr %8, align 4
  %29 = load i32, ptr %8, align 4
  %30 = icmp sle i32 %29, 0
  br i1 %30, label %31, label %33

31:                                               ; preds = %17
  %32 = load i32, ptr %7, align 4
  store i32 %32, ptr %3, align 4
  br label %39

33:                                               ; preds = %17
  %34 = load i32, ptr %8, align 4
  %35 = load i32, ptr %7, align 4
  %36 = add nsw i32 %35, %34
  store i32 %36, ptr %7, align 4
  br label %13, !llvm.loop !4

37:                                               ; preds = %13
  %38 = load i32, ptr %7, align 4
  store i32 %38, ptr %3, align 4
  br label %39

39:                                               ; preds = %37, %31
  %40 = load i32, ptr %3, align 4
  ret i32 %40
}