; Function Attrs: mustprogress uwtable
define noundef range(i32 0, -2147483648) i32 @_ZN6google8protobuf2io18CopyingInputStream4SkipEi(ptr noundef nonnull align 8 dereferenceable(8) %0, i32 noundef %1) unnamed_addr #5 align 2 {
  %3 = alloca [4096 x i8], align 16
  %4 = icmp sgt i32 %1, 0
  br i1 %4, label %.lr.ph, label %._crit_edge

5:                                                ; preds = %.lr.ph
  %6 = add nuw nsw i32 %12, %.01016
  %7 = icmp slt i32 %6, %1
  br i1 %7, label %.lr.ph, label %._crit_edge, !llvm.loop !4

.lr.ph:                                           ; preds = %2, %5
  %.01016 = phi i32 [ %6, %5 ], [ 0, %2 ]
  %8 = sub nsw i32 %1, %.01016
  %.sroa.speculated = call i32 @llvm.smin.i32(i32 %8, i32 4096)
  %9 = load ptr, ptr %0, align 8
  %10 = getelementptr inbounds i8, ptr %9, i64 16
  %11 = load ptr, ptr %10, align 8
  %12 = call noundef i32 %11(ptr noundef nonnull align 8 dereferenceable(8) %0, ptr noundef nonnull %3, i32 noundef %.sroa.speculated)
  %13 = icmp slt i32 %12, 1
  br i1 %13, label %._crit_edge, label %5

._crit_edge:                                      ; preds = %.lr.ph, %5, %2
  %.010.lcssa = phi i32 [ 0, %2 ], [ %6, %5 ], [ %.01016, %.lr.ph ]
  ret i32 %.010.lcssa
}